target datalayout = "e-m:e-p270:32:32-p271:32:32-p272:64:64-i64:64-i128:128-f80:128-n8:16:32:64-S128"
target triple = "x86_64-pc-linux-gnu"

%struct.ForEachState = type { ptr, i32 }
%struct.PlannerInfo = type { i32, ptr, ptr, i32, ptr, ptr, ptr, ptr, i32, ptr, ptr, ptr, ptr, ptr, ptr, ptr, ptr, i32, ptr, ptr, ptr, ptr, ptr, i8, ptr, ptr, ptr, ptr, ptr, i32, ptr, ptr, ptr, ptr, ptr, ptr, ptr, i32, ptr, ptr, ptr, i32, ptr, ptr, ptr, ptr, ptr, ptr, [8 x ptr], [8 x ptr], ptr, ptr, ptr, ptr, ptr, ptr, ptr, double, double, double, i32, i8, i8, i8, i8, i8, i8, i8, i32, ptr, ptr, i32, i8, i8, i32, ptr, ptr, ptr, ptr, ptr, ptr, i8, ptr }
%struct.List = type { i32, i32, i32, ptr, [0 x %union.ListCell] }
%union.ListCell = type { ptr }
%struct.Query = type { i32, i32, i32, i64, i8, ptr, i32, i8, i8, i8, i8, i8, i8, i8, i8, i8, i8, i8, ptr, ptr, ptr, ptr, ptr, i32, ptr, ptr, i32, ptr, ptr, ptr, ptr, ptr, i8, ptr, ptr, ptr, ptr, ptr, ptr, ptr, i32, ptr, ptr, ptr, ptr, i32, i32 }
%struct.RangeTblEntry = type { i32, ptr, ptr, i32, i32, i8, i8, i32, i32, ptr, ptr, i8, i32, i32, ptr, ptr, ptr, ptr, ptr, i8, ptr, ptr, ptr, i32, i8, ptr, ptr, ptr, ptr, double, ptr, i8, i8, ptr }
%struct.RelOptInfo = type { i32, i32, ptr, double, i8, i8, i8, ptr, ptr, ptr, ptr, ptr, ptr, ptr, ptr, ptr, ptr, i32, i32, i32, i16, i16, ptr, ptr, ptr, ptr, ptr, ptr, ptr, ptr, i32, double, double, ptr, ptr, ptr, i32, i32, i32, i32, i8, ptr, ptr, ptr, ptr, ptr, %struct.QualCost, i32, ptr, i8, i8, ptr, ptr, ptr, ptr, i32, ptr, i8, ptr, ptr, ptr, ptr, ptr, ptr }
%struct.QualCost = type { double, double }
%struct.flatten_rtes_walker_context = type { ptr, ptr }

; Function Attrs: nounwind uwtable
define internal void @flatten_unplanned_rtes(ptr noundef %0, ptr noundef %1) #0 {
  %3 = alloca ptr, align 8
  %4 = alloca ptr, align 8
  %5 = alloca %struct.flatten_rtes_walker_context, align 8
  store ptr %0, ptr %3, align 8
  store ptr %1, ptr %4, align 8
  call void @llvm.lifetime.start.p0(i64 16, ptr %5) #8
  %6 = getelementptr inbounds nuw %struct.flatten_rtes_walker_context, ptr %5, i32 0, i32 0
  %7 = load ptr, ptr %3, align 8
  store ptr %7, ptr %6, align 8
  %8 = getelementptr inbounds nuw %struct.flatten_rtes_walker_context, ptr %5, i32 0, i32 1
  %9 = load ptr, ptr %4, align 8
  %10 = getelementptr inbounds nuw %struct.RangeTblEntry, ptr %9, i32 0, i32 10
  %11 = load ptr, ptr %10, align 8
  store ptr %11, ptr %8, align 8
  %12 = load ptr, ptr %4, align 8
  %13 = getelementptr inbounds nuw %struct.RangeTblEntry, ptr %12, i32 0, i32 10
  %14 = load ptr, ptr %13, align 8
  %15 = call zeroext i1 @query_tree_walker_impl(ptr noundef %14, ptr noundef @flatten_rtes_walker, ptr noundef %5, i32 noundef 16)
  call void @llvm.lifetime.end.p0(i64 16, ptr %5) #8
  ret void
}

; Function Attrs: nounwind uwtable
define internal void @add_rtes_to_flat_rtable(ptr noundef %0, i1 noundef zeroext %1) #0 {
  %3 = alloca ptr, align 8
  %4 = alloca i8, align 1
  %5 = alloca ptr, align 8
  %6 = alloca i32, align 4
  %7 = alloca ptr, align 8
  %8 = alloca %struct.ForEachState, align 8
  %9 = alloca ptr, align 8
  %10 = alloca %struct.ForEachState, align 8
  %11 = alloca ptr, align 8
  %12 = alloca ptr, align 8
  store ptr %0, ptr %3, align 8
  %13 = zext i1 %1 to i8
  store i8 %13, ptr %4, align 1
  call void @llvm.lifetime.start.p0(i64 8, ptr %5) #8
  %14 = load ptr, ptr %3, align 8
  %15 = getelementptr inbounds nuw %struct.PlannerInfo, ptr %14, i32 0, i32 2
  %16 = load ptr, ptr %15, align 8
  store ptr %16, ptr %5, align 8
  call void @llvm.lifetime.start.p0(i64 4, ptr %6) #8
  call void @llvm.lifetime.start.p0(i64 8, ptr %7) #8
  call void @llvm.lifetime.start.p0(i64 16, ptr %8) #8
  %17 = getelementptr inbounds nuw %struct.ForEachState, ptr %8, i32 0, i32 0
  %18 = load ptr, ptr %3, align 8
  %19 = getelementptr inbounds nuw %struct.PlannerInfo, ptr %18, i32 0, i32 1
  %20 = load ptr, ptr %19, align 8
  %21 = getelementptr inbounds nuw %struct.Query, ptr %20, i32 0, i32 19
  %22 = load ptr, ptr %21, align 8
  store ptr %22, ptr %17, align 8
  %23 = getelementptr inbounds nuw %struct.ForEachState, ptr %8, i32 0, i32 1
  store i32 0, ptr %23, align 8
  %24 = getelementptr i8, ptr %8, i64 12
  call void @llvm.memset.p0.i64(ptr align 4 %24, i8 0, i64 4, i1 false)
  br label %25

25:                                               ; preds = %80, %2
  %26 = getelementptr inbounds nuw %struct.ForEachState, ptr %8, i32 0, i32 0
  %27 = load ptr, ptr %26, align 8
  %28 = icmp ne ptr %27, null
  br i1 %28, label %29, label %46

29:                                               ; preds = %25
  %30 = getelementptr inbounds nuw %struct.ForEachState, ptr %8, i32 0, i32 1
  %31 = load i32, ptr %30, align 8
  %32 = getelementptr inbounds nuw %struct.ForEachState, ptr %8, i32 0, i32 0
  %33 = load ptr, ptr %32, align 8
  %34 = getelementptr inbounds nuw %struct.List, ptr %33, i32 0, i32 1
  %35 = load i32, ptr %34, align 4
  %36 = icmp slt i32 %31, %35
  br i1 %36, label %37, label %46

37:                                               ; preds = %29
  %38 = getelementptr inbounds nuw %struct.ForEachState, ptr %8, i32 0, i32 0
  %39 = load ptr, ptr %38, align 8
  %40 = getelementptr inbounds nuw %struct.List, ptr %39, i32 0, i32 3
  %41 = load ptr, ptr %40, align 8
  %42 = getelementptr inbounds nuw %struct.ForEachState, ptr %8, i32 0, i32 1
  %43 = load i32, ptr %42, align 8
  %44 = sext i32 %43 to i64
  %45 = getelementptr inbounds %union.ListCell, ptr %41, i64 %44
  store ptr %45, ptr %7, align 8
  br label %47

46:                                               ; preds = %29, %25
  store ptr null, ptr %7, align 8
  br label %47

47:                                               ; preds = %46, %37
  %48 = phi i32 [ 1, %37 ], [ 0, %46 ]
  %49 = icmp ne i32 %48, 0
  br i1 %49, label %51, label %50

50:                                               ; preds = %47
  call void @llvm.lifetime.end.p0(i64 16, ptr %8) #8
  br label %84

51:                                               ; preds = %47
  call void @llvm.lifetime.start.p0(i64 8, ptr %9) #8
  %52 = load ptr, ptr %7, align 8
  %53 = load ptr, ptr %52, align 8
  store ptr %53, ptr %9, align 8
  %54 = load i8, ptr %4, align 1, !range !7, !noundef !8
  %55 = trunc i8 %54 to i1
  br i1 %55, label %56, label %71

56:                                               ; preds = %51
  %57 = load ptr, ptr %9, align 8
  %58 = getelementptr inbounds nuw %struct.RangeTblEntry, ptr %57, i32 0, i32 3
  %59 = load i32, ptr %58, align 8
  %60 = icmp eq i32 %59, 0
  br i1 %60, label %71, label %61

61:                                               ; preds = %56
  %62 = load ptr, ptr %9, align 8
  %63 = getelementptr inbounds nuw %struct.RangeTblEntry, ptr %62, i32 0, i32 3
  %64 = load i32, ptr %63, align 8
  %65 = icmp eq i32 %64, 1
  br i1 %65, label %66, label %79

66:                                               ; preds = %61
  %67 = load ptr, ptr %9, align 8
  %68 = getelementptr inbounds nuw %struct.RangeTblEntry, ptr %67, i32 0, i32 4
  %69 = load i32, ptr %68, align 4
  %70 = icmp ne i32 %69, 0
  br i1 %70, label %71, label %79

71:                                               ; preds = %66, %56, %51
  %72 = load ptr, ptr %5, align 8
  %73 = load ptr, ptr %3, align 8
  %74 = getelementptr inbounds nuw %struct.PlannerInfo, ptr %73, i32 0, i32 1
  %75 = load ptr, ptr %74, align 8
  %76 = getelementptr inbounds nuw %struct.Query, ptr %75, i32 0, i32 20
  %77 = load ptr, ptr %76, align 8
  %78 = load ptr, ptr %9, align 8
  call void @add_rte_to_flat_rtable(ptr noundef %72, ptr noundef %77, ptr noundef %78)
  br label %79

79:                                               ; preds = %71, %66, %61
  call void @llvm.lifetime.end.p0(i64 8, ptr %9) #8
  br label %80

80:                                               ; preds = %79
  %81 = getelementptr inbounds nuw %struct.ForEachState, ptr %8, i32 0, i32 1
  %82 = load i32, ptr %81, align 8
  %83 = add i32 %82, 1
  store i32 %83, ptr %81, align 8
  br label %25, !llvm.loop !10

84:                                               ; preds = %50
  store i32 1, ptr %6, align 4
  call void @llvm.lifetime.start.p0(i64 16, ptr %10) #8
  %85 = getelementptr inbounds nuw %struct.ForEachState, ptr %10, i32 0, i32 0
  %86 = load ptr, ptr %3, align 8
  %87 = getelementptr inbounds nuw %struct.PlannerInfo, ptr %86, i32 0, i32 1
  %88 = load ptr, ptr %87, align 8
  %89 = getelementptr inbounds nuw %struct.Query, ptr %88, i32 0, i32 19
  %90 = load ptr, ptr %89, align 8
  store ptr %90, ptr %85, align 8
  %91 = getelementptr inbounds nuw %struct.ForEachState, ptr %10, i32 0, i32 1
  store i32 0, ptr %91, align 8
  %92 = getelementptr i8, ptr %10, i64 12
  call void @llvm.memset.p0.i64(ptr align 4 %92, i8 0, i64 4, i1 false)
  br label %93

93:                                               ; preds = %174, %84
  %94 = getelementptr inbounds nuw %struct.ForEachState, ptr %10, i32 0, i32 0
  %95 = load ptr, ptr %94, align 8
  %96 = icmp ne ptr %95, null
  br i1 %96, label %97, label %114

97:                                               ; preds = %93
  %98 = getelementptr inbounds nuw %struct.ForEachState, ptr %10, i32 0, i32 1
  %99 = load i32, ptr %98, align 8
  %100 = getelementptr inbounds nuw %struct.ForEachState, ptr %10, i32 0, i32 0
  %101 = load ptr, ptr %100, align 8
  %102 = getelementptr inbounds nuw %struct.List, ptr %101, i32 0, i32 1
  %103 = load i32, ptr %102, align 4
  %104 = icmp slt i32 %99, %103
  br i1 %104, label %105, label %114

105:                                              ; preds = %97
  %106 = getelementptr inbounds nuw %struct.ForEachState, ptr %10, i32 0, i32 0
  %107 = load ptr, ptr %106, align 8
  %108 = getelementptr inbounds nuw %struct.List, ptr %107, i32 0, i32 3
  %109 = load ptr, ptr %108, align 8
  %110 = getelementptr inbounds nuw %struct.ForEachState, ptr %10, i32 0, i32 1
  %111 = load i32, ptr %110, align 8
  %112 = sext i32 %111 to i64
  %113 = getelementptr inbounds %union.ListCell, ptr %109, i64 %112
  store ptr %113, ptr %7, align 8
  br label %115

114:                                              ; preds = %97, %93
  store ptr null, ptr %7, align 8
  br label %115

115:                                              ; preds = %114, %105
  %116 = phi i32 [ 1, %105 ], [ 0, %114 ]
  %117 = icmp ne i32 %116, 0
  br i1 %117, label %119, label %118

118:                                              ; preds = %115
  call void @llvm.lifetime.end.p0(i64 16, ptr %10) #8
  br label %178

119:                                              ; preds = %115
  call void @llvm.lifetime.start.p0(i64 8, ptr %11) #8
  %120 = load ptr, ptr %7, align 8
  %121 = load ptr, ptr %120, align 8
  store ptr %121, ptr %11, align 8
  %122 = load ptr, ptr %11, align 8
  %123 = getelementptr inbounds nuw %struct.RangeTblEntry, ptr %122, i32 0, i32 3
  %124 = load i32, ptr %123, align 8
  %125 = icmp eq i32 %124, 1
  br i1 %125, label %126, label %171

126:                                              ; preds = %119
  %127 = load ptr, ptr %11, align 8
  %128 = getelementptr inbounds nuw %struct.RangeTblEntry, ptr %127, i32 0, i32 5
  %129 = load i8, ptr %128, align 8, !range !7, !noundef !8
  %130 = trunc i8 %129 to i1
  br i1 %130, label %171, label %131

131:                                              ; preds = %126
  %132 = load i32, ptr %6, align 4
  %133 = load ptr, ptr %3, align 8
  %134 = getelementptr inbounds nuw %struct.PlannerInfo, ptr %133, i32 0, i32 8
  %135 = load i32, ptr %134, align 8
  %136 = icmp ult i32 %132, %135
  br i1 %136, label %137, label %171

137:                                              ; preds = %131
  call void @llvm.lifetime.start.p0(i64 8, ptr %12) #8
  %138 = load ptr, ptr %3, align 8
  %139 = getelementptr inbounds nuw %struct.PlannerInfo, ptr %138, i32 0, i32 7
  %140 = load ptr, ptr %139, align 8
  %141 = load i32, ptr %6, align 4
  %142 = zext i32 %141 to i64
  %143 = getelementptr inbounds nuw ptr, ptr %140, i64 %142
  %144 = load ptr, ptr %143, align 8
  store ptr %144, ptr %12, align 8
  %145 = load ptr, ptr %12, align 8
  %146 = icmp ne ptr %145, null
  br i1 %146, label %147, label %170

147:                                              ; preds = %137
  %148 = load ptr, ptr %12, align 8
  %149 = getelementptr inbounds nuw %struct.RelOptInfo, ptr %148, i32 0, i32 34
  %150 = load ptr, ptr %149, align 8
  %151 = icmp eq ptr %150, null
  br i1 %151, label %152, label %155

152:                                              ; preds = %147
  %153 = load ptr, ptr %5, align 8
  %154 = load ptr, ptr %11, align 8
  call void @flatten_unplanned_rtes(ptr noundef %153, ptr noundef %154)
  br label %169

155:                                              ; preds = %147
  %156 = load i8, ptr %4, align 1, !range !7, !noundef !8
  %157 = trunc i8 %156 to i1
  br i1 %157, label %164, label %158

158:                                              ; preds = %155
  %159 = load ptr, ptr %12, align 8
  %160 = getelementptr inbounds nuw %struct.RelOptInfo, ptr %159, i32 0, i32 34
  %161 = load ptr, ptr %160, align 8
  %162 = call ptr @fetch_upper_rel(ptr noundef %161, i32 noundef 7, ptr noundef null)
  %163 = call zeroext i1 @is_dummy_rel(ptr noundef %162)
  br i1 %163, label %164, label %168

164:                                              ; preds = %158, %155
  %165 = load ptr, ptr %12, align 8
  %166 = getelementptr inbounds nuw %struct.RelOptInfo, ptr %165, i32 0, i32 34
  %167 = load ptr, ptr %166, align 8
  call void @add_rtes_to_flat_rtable(ptr noundef %167, i1 noundef zeroext true)
  br label %168

168:                                              ; preds = %164, %158
  br label %169

169:                                              ; preds = %168, %152
  br label %170

170:                                              ; preds = %169, %137
  call void @llvm.lifetime.end.p0(i64 8, ptr %12) #8
  br label %171

171:                                              ; preds = %170, %131, %126, %119
  %172 = load i32, ptr %6, align 4
  %173 = add i32 %172, 1
  store i32 %173, ptr %6, align 4
  call void @llvm.lifetime.end.p0(i64 8, ptr %11) #8
  br label %174

174:                                              ; preds = %171
  %175 = getelementptr inbounds nuw %struct.ForEachState, ptr %10, i32 0, i32 1
  %176 = load i32, ptr %175, align 8
  %177 = add i32 %176, 1
  store i32 %177, ptr %175, align 8
  br label %93, !llvm.loop !11

178:                                              ; preds = %118
  call void @llvm.lifetime.end.p0(i64 8, ptr %7) #8
  call void @llvm.lifetime.end.p0(i64 4, ptr %6) #8
  call void @llvm.lifetime.end.p0(i64 8, ptr %5) #8
  ret void
}