; Function Attrs: nounwind uwtable
define internal fastcc void @add_rtes_to_flat_rtable(ptr noundef readonly captures(none) %0, i1 noundef zeroext %1) unnamed_addr #0 {
  %3 = alloca %struct.flatten_rtes_walker_context, align 8
  %4 = getelementptr inbounds nuw i8, ptr %0, i64 16
  %5 = load ptr, ptr %4, align 8
  %6 = getelementptr inbounds nuw i8, ptr %0, i64 8
  %7 = load ptr, ptr %6, align 8
  %8 = getelementptr inbounds nuw i8, ptr %7, i64 64
  %9 = load ptr, ptr %8, align 8
  %10 = getelementptr inbounds nuw i8, ptr %9, i64 4
  %.not = icmp eq ptr %9, null
  br i1 %.not, label %._crit_edge, label %.lr.ph

.lr.ph:                                           ; preds = %2
  %11 = getelementptr inbounds nuw i8, ptr %9, i64 16
  %12 = load i32, ptr %10, align 4
  %13 = icmp sgt i32 %12, 0
  br i1 %1, label %.lr.ph.split.us.split, label %.lr.ph.split.split

.lr.ph.split.us.split:                            ; preds = %.lr.ph
  br i1 %13, label %.lr.ph59, label %._crit_edge.thread97

.lr.ph59:                                         ; preds = %.lr.ph.split.us.split, %27
  %14 = phi i32 [ %28, %27 ], [ %12, %.lr.ph.split.us.split ]
  %indvars.iv79 = phi i64 [ %indvars.iv.next80, %27 ], [ 0, %.lr.ph.split.us.split ]
  %15 = load ptr, ptr %11, align 8
  %16 = getelementptr inbounds nuw %union.ListCell, ptr %15, i64 %indvars.iv79
  %17 = load ptr, ptr %16, align 8
  %18 = getelementptr inbounds nuw i8, ptr %17, i64 24
  %19 = load i32, ptr %18, align 8
  switch i32 %19, label %27 [
    i32 0, label %23
    i32 1, label %20
  ]

20:                                               ; preds = %.lr.ph59
  %21 = getelementptr inbounds nuw i8, ptr %17, i64 28
  %22 = load i32, ptr %21, align 4
  %.not46.us = icmp eq i32 %22, 0
  br i1 %.not46.us, label %27, label %23

23:                                               ; preds = %20, %.lr.ph59
  %24 = load ptr, ptr %6, align 8
  %25 = getelementptr inbounds nuw i8, ptr %24, i64 72
  %26 = load ptr, ptr %25, align 8
  tail call fastcc void @add_rte_to_flat_rtable(ptr noundef %5, ptr noundef %26, ptr noundef nonnull %17)
  %.pre = load i32, ptr %10, align 4
  br label %27

27:                                               ; preds = %23, %20, %.lr.ph59
  %28 = phi i32 [ %.pre, %23 ], [ %14, %20 ], [ %14, %.lr.ph59 ]
  %indvars.iv.next80 = add nuw nsw i64 %indvars.iv79, 1
  %29 = sext i32 %28 to i64
  %30 = icmp slt i64 %indvars.iv.next80, %29
  br i1 %30, label %.lr.ph59, label %._crit_edge

.lr.ph.split.split:                               ; preds = %.lr.ph
  br i1 %13, label %.lr.ph57, label %._crit_edge.thread

._crit_edge:                                      ; preds = %.lr.ph57, %27, %2
  %31 = load ptr, ptr %6, align 8
  %32 = getelementptr inbounds nuw i8, ptr %31, i64 64
  %33 = load ptr, ptr %32, align 8
  %.not43 = icmp eq ptr %33, null
  br i1 %.not43, label %._crit_edge64, label %.lr.ph63

._crit_edge.thread97:                             ; preds = %.lr.ph.split.us.split
  %34 = load ptr, ptr %6, align 8
  %35 = getelementptr inbounds nuw i8, ptr %34, i64 64
  %36 = load ptr, ptr %35, align 8
  %.not4398 = icmp eq ptr %36, null
  br i1 %.not4398, label %._crit_edge64, label %.lr.ph63.thread99

.lr.ph63.thread99:                                ; preds = %._crit_edge.thread97
  %37 = getelementptr inbounds nuw i8, ptr %36, i64 4
  %38 = getelementptr inbounds nuw i8, ptr %36, i64 16
  %39 = getelementptr inbounds nuw i8, ptr %0, i64 64
  %40 = getelementptr inbounds nuw i8, ptr %0, i64 56
  %41 = getelementptr inbounds nuw i8, ptr %3, i64 8
  br label %.lr.ph63.split.us.split

._crit_edge.thread:                               ; preds = %.lr.ph.split.split
  %42 = load ptr, ptr %6, align 8
  %43 = getelementptr inbounds nuw i8, ptr %42, i64 64
  %44 = load ptr, ptr %43, align 8
  %.not4396 = icmp eq ptr %44, null
  br i1 %.not4396, label %._crit_edge64, label %.lr.ph63.thread

.lr.ph63.thread:                                  ; preds = %._crit_edge.thread
  %45 = getelementptr inbounds nuw i8, ptr %44, i64 4
  %46 = getelementptr inbounds nuw i8, ptr %44, i64 16
  %47 = getelementptr inbounds nuw i8, ptr %0, i64 64
  %48 = getelementptr inbounds nuw i8, ptr %0, i64 56
  %49 = getelementptr inbounds nuw i8, ptr %3, i64 8
  br label %.lr.ph63.split.split

.lr.ph63:                                         ; preds = %._crit_edge
  %50 = getelementptr inbounds nuw i8, ptr %33, i64 4
  %51 = getelementptr inbounds nuw i8, ptr %33, i64 16
  %52 = getelementptr inbounds nuw i8, ptr %0, i64 64
  %53 = getelementptr inbounds nuw i8, ptr %0, i64 56
  %54 = getelementptr inbounds nuw i8, ptr %3, i64 8
  br i1 %1, label %.lr.ph63.split.us.split, label %.lr.ph63.split.split

.lr.ph63.split.us.split:                          ; preds = %.lr.ph63, %.lr.ph63.thread99
  %55 = phi ptr [ %41, %.lr.ph63.thread99 ], [ %54, %.lr.ph63 ]
  %56 = phi ptr [ %40, %.lr.ph63.thread99 ], [ %53, %.lr.ph63 ]
  %57 = phi ptr [ %39, %.lr.ph63.thread99 ], [ %52, %.lr.ph63 ]
  %58 = phi ptr [ %38, %.lr.ph63.thread99 ], [ %51, %.lr.ph63 ]
  %59 = phi ptr [ %37, %.lr.ph63.thread99 ], [ %50, %.lr.ph63 ]
  %60 = load i32, ptr %59, align 4
  %61 = icmp sgt i32 %60, 0
  br i1 %61, label %.lr.ph75, label %._crit_edge64

.lr.ph75:                                         ; preds = %.lr.ph63.split.us.split, %88
  %indvars.iv91 = phi i64 [ %indvars.iv.next92, %88 ], [ 1, %.lr.ph63.split.us.split ]
  %indvars.iv89 = phi i64 [ %indvars.iv.next90, %88 ], [ 0, %.lr.ph63.split.us.split ]
  %62 = load ptr, ptr %58, align 8
  %63 = getelementptr inbounds nuw %union.ListCell, ptr %62, i64 %indvars.iv89
  %64 = load ptr, ptr %63, align 8
  %65 = getelementptr inbounds nuw i8, ptr %64, i64 24
  %66 = load i32, ptr %65, align 8
  %67 = icmp eq i32 %66, 1
  br i1 %67, label %68, label %88

68:                                               ; preds = %.lr.ph75
  %69 = getelementptr inbounds nuw i8, ptr %64, i64 32
  %70 = load i8, ptr %69, align 8, !range !4, !noundef !5
  %71 = trunc nuw i8 %70 to i1
  br i1 %71, label %88, label %72

72:                                               ; preds = %68
  %73 = load i32, ptr %57, align 8
  %74 = zext i32 %73 to i64
  %75 = icmp samesign ult i64 %indvars.iv91, %74
  br i1 %75, label %76, label %88

76:                                               ; preds = %72
  %77 = load ptr, ptr %56, align 8
  %78 = getelementptr inbounds nuw ptr, ptr %77, i64 %indvars.iv91
  %79 = load ptr, ptr %78, align 8
  %.not45.us = icmp eq ptr %79, null
  br i1 %.not45.us, label %88, label %80

80:                                               ; preds = %76
  %81 = getelementptr inbounds nuw i8, ptr %79, i64 224
  %82 = load ptr, ptr %81, align 8
  %83 = icmp eq ptr %82, null
  br i1 %83, label %85, label %84

84:                                               ; preds = %80
  call fastcc void @add_rtes_to_flat_rtable(ptr noundef nonnull %82, i1 noundef zeroext true)
  br label %88

85:                                               ; preds = %80
  %86 = getelementptr i8, ptr %64, i64 56
  %.val.us = load ptr, ptr %86, align 8
  call void @llvm.lifetime.start.p0(i64 16, ptr nonnull %3) #8
  store ptr %5, ptr %3, align 8
  store ptr %.val.us, ptr %55, align 8
  %87 = call zeroext i1 @query_tree_walker_impl(ptr noundef %.val.us, ptr noundef nonnull @flatten_rtes_walker, ptr noundef nonnull %3, i32 noundef 16) #8
  call void @llvm.lifetime.end.p0(i64 16, ptr nonnull %3) #8
  br label %88

88:                                               ; preds = %85, %84, %76, %72, %68, %.lr.ph75
  %indvars.iv.next92 = add nuw nsw i64 %indvars.iv91, 1
  %indvars.iv.next90 = add nuw nsw i64 %indvars.iv89, 1
  %89 = load i32, ptr %59, align 4
  %90 = sext i32 %89 to i64
  %91 = icmp slt i64 %indvars.iv.next90, %90
  br i1 %91, label %.lr.ph75, label %._crit_edge64

.lr.ph63.split.split:                             ; preds = %.lr.ph63, %.lr.ph63.thread
  %92 = phi ptr [ %49, %.lr.ph63.thread ], [ %54, %.lr.ph63 ]
  %93 = phi ptr [ %48, %.lr.ph63.thread ], [ %53, %.lr.ph63 ]
  %94 = phi ptr [ %47, %.lr.ph63.thread ], [ %52, %.lr.ph63 ]
  %95 = phi ptr [ %46, %.lr.ph63.thread ], [ %51, %.lr.ph63 ]
  %96 = phi ptr [ %45, %.lr.ph63.thread ], [ %50, %.lr.ph63 ]
  %97 = load i32, ptr %96, align 4
  %98 = icmp sgt i32 %97, 0
  br i1 %98, label %.lr.ph72, label %._crit_edge64

.lr.ph57:                                         ; preds = %.lr.ph.split.split, %.lr.ph57
  %indvars.iv = phi i64 [ %indvars.iv.next, %.lr.ph57 ], [ 0, %.lr.ph.split.split ]
  %99 = load ptr, ptr %11, align 8
  %100 = getelementptr inbounds nuw %union.ListCell, ptr %99, i64 %indvars.iv
  %101 = load ptr, ptr %100, align 8
  %102 = load ptr, ptr %6, align 8
  %103 = getelementptr inbounds nuw i8, ptr %102, i64 72
  %104 = load ptr, ptr %103, align 8
  tail call fastcc void @add_rte_to_flat_rtable(ptr noundef %5, ptr noundef %104, ptr noundef %101)
  %indvars.iv.next = add nuw nsw i64 %indvars.iv, 1
  %105 = load i32, ptr %10, align 4
  %106 = sext i32 %105 to i64
  %107 = icmp slt i64 %indvars.iv.next, %106
  br i1 %107, label %.lr.ph57, label %._crit_edge

._crit_edge64:                                    ; preds = %138, %88, %._crit_edge.thread97, %._crit_edge.thread, %.lr.ph63.split.us.split, %.lr.ph63.split.split, %._crit_edge
  ret void

.lr.ph72:                                         ; preds = %.lr.ph63.split.split, %138
  %indvars.iv84 = phi i64 [ %indvars.iv.next85, %138 ], [ 1, %.lr.ph63.split.split ]
  %indvars.iv82 = phi i64 [ %indvars.iv.next83, %138 ], [ 0, %.lr.ph63.split.split ]
  %108 = load ptr, ptr %95, align 8
  %109 = getelementptr inbounds nuw %union.ListCell, ptr %108, i64 %indvars.iv82
  %110 = load ptr, ptr %109, align 8
  %111 = getelementptr inbounds nuw i8, ptr %110, i64 24
  %112 = load i32, ptr %111, align 8
  %113 = icmp eq i32 %112, 1
  br i1 %113, label %114, label %138

114:                                              ; preds = %.lr.ph72
  %115 = getelementptr inbounds nuw i8, ptr %110, i64 32
  %116 = load i8, ptr %115, align 8, !range !4, !noundef !5
  %117 = trunc nuw i8 %116 to i1
  br i1 %117, label %138, label %118

118:                                              ; preds = %114
  %119 = load i32, ptr %94, align 8
  %120 = zext i32 %119 to i64
  %121 = icmp samesign ult i64 %indvars.iv84, %120
  br i1 %121, label %122, label %138

122:                                              ; preds = %118
  %123 = load ptr, ptr %93, align 8
  %124 = getelementptr inbounds nuw ptr, ptr %123, i64 %indvars.iv84
  %125 = load ptr, ptr %124, align 8
  %.not45 = icmp eq ptr %125, null
  br i1 %.not45, label %138, label %126

126:                                              ; preds = %122
  %127 = getelementptr inbounds nuw i8, ptr %125, i64 224
  %128 = load ptr, ptr %127, align 8
  %129 = icmp eq ptr %128, null
  br i1 %129, label %130, label %133

130:                                              ; preds = %126
  %131 = getelementptr i8, ptr %110, i64 56
  %.val = load ptr, ptr %131, align 8
  call void @llvm.lifetime.start.p0(i64 16, ptr nonnull %3) #8
  store ptr %5, ptr %3, align 8
  store ptr %.val, ptr %92, align 8
  %132 = call zeroext i1 @query_tree_walker_impl(ptr noundef %.val, ptr noundef nonnull @flatten_rtes_walker, ptr noundef nonnull %3, i32 noundef 16) #8
  call void @llvm.lifetime.end.p0(i64 16, ptr nonnull %3) #8
  br label %138

133:                                              ; preds = %126
  %134 = call ptr @fetch_upper_rel(ptr noundef nonnull %128, i32 noundef 7, ptr noundef null) #8
  %135 = call zeroext i1 @is_dummy_rel(ptr noundef %134) #8
  br i1 %135, label %136, label %138

136:                                              ; preds = %133
  %137 = load ptr, ptr %127, align 8
  call fastcc void @add_rtes_to_flat_rtable(ptr noundef %137, i1 noundef zeroext true)
  br label %138

138:                                              ; preds = %122, %133, %136, %130, %118, %114, %.lr.ph72
  %indvars.iv.next85 = add nuw nsw i64 %indvars.iv84, 1
  %indvars.iv.next83 = add nuw nsw i64 %indvars.iv82, 1
  %139 = load i32, ptr %96, align 4
  %140 = sext i32 %139 to i64
  %141 = icmp slt i64 %indvars.iv.next83, %140
  br i1 %141, label %.lr.ph72, label %._crit_edge64
}